target datalayout = "e-m:e-p270:32:32-p271:32:32-p272:64:64-i64:64-i128:128-f80:128-n8:16:32:64-S128"
target triple = "x86_64-pc-linux-gnu"

%struct.dt_imageio_xcf_t = type { %struct.dt_imageio_module_data_t, i32 }
%struct.dt_imageio_module_data_t = type { i32, i32, i32, i32, [128 x i8], i32 }

@.str.13 = private unnamed_addr constant [31 x i8] c"plugins/imageio/format/xcf/bpp\00", align 1

; Function Attrs: inlinehint nounwind willreturn memory(read) uwtable
define available_externally i32 @atoi(ptr noundef nonnull %0) #10 {
  %2 = alloca ptr, align 8
  store ptr %0, ptr %2, align 8, !tbaa !11
  %3 = load ptr, ptr %2, align 8, !tbaa !11
  %4 = call i64 @strtol(ptr noundef %3, ptr noundef null, i32 noundef 10) #12
  %5 = trunc i64 %4 to i32
  ret i32 %5
}

; Function Attrs: nounwind uwtable
define ptr @get_params(ptr noundef %0) #0 {
  %2 = alloca ptr, align 8
  %3 = alloca ptr, align 8
  %4 = alloca ptr, align 8
  store ptr %0, ptr %2, align 8, !tbaa !119
  call void @llvm.lifetime.start.p0(i64 8, ptr %3) #12
  %5 = call noalias ptr @calloc(i64 noundef 1, i64 noundef 152) #16
  store ptr %5, ptr %3, align 8, !tbaa !18
  call void @llvm.lifetime.start.p0(i64 8, ptr %4) #12
  %6 = call ptr @dt_conf_get_string_const(ptr noundef @.str.13)
  store ptr %6, ptr %4, align 8, !tbaa !11
  %7 = load ptr, ptr %4, align 8, !tbaa !11
  %8 = call i32 @atoi(ptr noundef %7) #14
  %9 = load ptr, ptr %3, align 8, !tbaa !18
  %10 = getelementptr inbounds nuw %struct.dt_imageio_xcf_t, ptr %9, i32 0, i32 1
  store i32 %8, ptr %10, align 4, !tbaa !67
  %11 = load ptr, ptr %3, align 8, !tbaa !18
  %12 = getelementptr inbounds nuw %struct.dt_imageio_xcf_t, ptr %11, i32 0, i32 1
  %13 = load i32, ptr %12, align 4, !tbaa !67
  %14 = icmp ne i32 %13, 16
  br i1 %14, label %15, label %23

15:                                               ; preds = %1
  %16 = load ptr, ptr %3, align 8, !tbaa !18
  %17 = getelementptr inbounds nuw %struct.dt_imageio_xcf_t, ptr %16, i32 0, i32 1
  %18 = load i32, ptr %17, align 4, !tbaa !67
  %19 = icmp ne i32 %18, 32
  br i1 %19, label %20, label %23

20:                                               ; preds = %15
  %21 = load ptr, ptr %3, align 8, !tbaa !18
  %22 = getelementptr inbounds nuw %struct.dt_imageio_xcf_t, ptr %21, i32 0, i32 1
  store i32 8, ptr %22, align 4, !tbaa !67
  br label %23

23:                                               ; preds = %20, %15, %1
  %24 = load ptr, ptr %3, align 8, !tbaa !18
  call void @llvm.lifetime.end.p0(i64 8, ptr %4) #12
  call void @llvm.lifetime.end.p0(i64 8, ptr %3) #12
  ret ptr %24
}