; Function Attrs: nounwind uwtable
define noalias noundef ptr @get_params(ptr noundef readnone captures(none) %0) local_unnamed_addr #1 {
  %2 = tail call noalias dereferenceable_or_null(152) ptr @calloc(i64 noundef 1, i64 noundef 152) #20
  %3 = tail call ptr @dt_conf_get_string_const(ptr noundef nonnull @.str.13) #17
  %4 = tail call i64 @strtol(ptr noundef nonnull captures(none) %3, ptr noundef null, i32 noundef 10) #17
  %5 = trunc i64 %4 to i32
  %6 = getelementptr inbounds nuw i8, ptr %2, i64 148
  store i32 %5, ptr %6, align 4, !tbaa !17
  switch i32 %5, label %7 [
    i32 16, label %8
    i32 32, label %8
  ]

7:                                                ; preds = %1
  store i32 8, ptr %6, align 4, !tbaa !17
  br label %8

8:                                                ; preds = %1, %1, %7
  ret ptr %2
}